target datalayout = "e-m:e-p270:32:32-p271:32:32-p272:64:64-i64:64-i128:128-f80:128-n8:16:32:64-S128"
target triple = "x86_64-pc-linux-gnu"

%struct.AVFilterContext = type { ptr, ptr, ptr, ptr, ptr, i32, ptr, ptr, i32, ptr, ptr, i32, i32, ptr, ptr, ptr, ptr, i32, ptr, i32, i32 }
%struct.ScaleContext = type { ptr, ptr, %struct.FFFrameSync, i32, i32, ptr, [2 x double], i32, i32, i32, i32, i32, ptr, ptr, ptr, ptr, [41 x double], ptr, i32, i32, i32, i32, i32, i32, i32, i32, i32, i32, i32, i32, i32, i32, i32, i32, i32, i32 }
%struct.FFFrameSync = type { ptr, ptr, i32, %struct.AVRational, i64, ptr, ptr, i32, i32, i8, i8, ptr, i32, i32, i32, i32 }
%struct.AVRational = type { i32, i32 }
%struct.AVFilterFormatsConfig = type { ptr, ptr, ptr, ptr, ptr }
%struct.AVFilterLink = type { ptr, ptr, ptr, ptr, i32, i32, i32, i32, %struct.AVRational, i32, i32, i32, %struct.AVChannelLayout, %struct.AVRational, ptr, i32, %struct.AVFilterFormatsConfig, %struct.AVFilterFormatsConfig }
%struct.AVChannelLayout = type { i32, i32, %union.anon.1, ptr }
%union.anon.1 = type { i64 }
%struct.AVFrame = type { [8 x ptr], [8 x i32], ptr, i32, i32, i32, i32, i32, %struct.AVRational, i64, i64, %struct.AVRational, i32, ptr, i32, i32, [8 x ptr], ptr, i32, ptr, i32, i32, i32, i32, i32, i32, i32, i64, ptr, i32, ptr, ptr, i64, i64, i64, i64, ptr, %struct.AVChannelLayout, i64 }
%struct.FilterLink = type { %struct.AVFilterLink, ptr, i64, i64, i32, i32, i64, i64, i64, i64, %struct.AVRational, ptr }

; Function Attrs: inlinehint nounwind uwtable
define internal double @av_q2d(i64 %0) #8 {
  %2 = alloca %struct.AVRational, align 4
  store i64 %0, ptr %2, align 4
  %3 = getelementptr inbounds nuw %struct.AVRational, ptr %2, i32 0, i32 0
  %4 = load i32, ptr %3, align 4, !tbaa !103
  %5 = sitofp i32 %4 to double
  %6 = getelementptr inbounds nuw %struct.AVRational, ptr %2, i32 0, i32 1
  %7 = load i32, ptr %6, align 4, !tbaa !104
  %8 = sitofp i32 %7 to double
  %9 = fdiv nsz double %5, %8
  ret double %9
}

; Function Attrs: nounwind uwtable
define internal i32 @config_props_ref(ptr noundef %0) #1 {
  %2 = alloca ptr, align 8
  %3 = alloca ptr, align 8
  %4 = alloca ptr, align 8
  %5 = alloca ptr, align 8
  store ptr %0, ptr %2, align 8, !tbaa !89
  call void @llvm.lifetime.start.p0(i64 8, ptr %3) #12
  %6 = load ptr, ptr %2, align 8, !tbaa !89
  %7 = getelementptr inbounds nuw %struct.AVFilterLink, ptr %6, i32 0, i32 0
  %8 = load ptr, ptr %7, align 8, !tbaa !91
  %9 = getelementptr inbounds nuw %struct.AVFilterContext, ptr %8, i32 0, i32 4
  %10 = load ptr, ptr %9, align 8, !tbaa !97
  %11 = getelementptr inbounds ptr, ptr %10, i64 1
  %12 = load ptr, ptr %11, align 8, !tbaa !89
  store ptr %12, ptr %3, align 8, !tbaa !89
  call void @llvm.lifetime.start.p0(i64 8, ptr %4) #12
  %13 = load ptr, ptr %3, align 8, !tbaa !89
  %14 = call ptr @ff_filter_link(ptr noundef %13)
  store ptr %14, ptr %4, align 8, !tbaa !127
  call void @llvm.lifetime.start.p0(i64 8, ptr %5) #12
  %15 = load ptr, ptr %2, align 8, !tbaa !89
  %16 = call ptr @ff_filter_link(ptr noundef %15)
  store ptr %16, ptr %5, align 8, !tbaa !127
  %17 = load ptr, ptr %3, align 8, !tbaa !89
  %18 = getelementptr inbounds nuw %struct.AVFilterLink, ptr %17, i32 0, i32 6
  %19 = load i32, ptr %18, align 8, !tbaa !98
  %20 = load ptr, ptr %2, align 8, !tbaa !89
  %21 = getelementptr inbounds nuw %struct.AVFilterLink, ptr %20, i32 0, i32 6
  store i32 %19, ptr %21, align 8, !tbaa !98
  %22 = load ptr, ptr %3, align 8, !tbaa !89
  %23 = getelementptr inbounds nuw %struct.AVFilterLink, ptr %22, i32 0, i32 7
  %24 = load i32, ptr %23, align 4, !tbaa !99
  %25 = load ptr, ptr %2, align 8, !tbaa !89
  %26 = getelementptr inbounds nuw %struct.AVFilterLink, ptr %25, i32 0, i32 7
  store i32 %24, ptr %26, align 4, !tbaa !99
  %27 = load ptr, ptr %2, align 8, !tbaa !89
  %28 = getelementptr inbounds nuw %struct.AVFilterLink, ptr %27, i32 0, i32 8
  %29 = load ptr, ptr %3, align 8, !tbaa !89
  %30 = getelementptr inbounds nuw %struct.AVFilterLink, ptr %29, i32 0, i32 8
  call void @llvm.memcpy.p0.p0.i64(ptr align 8 %28, ptr align 8 %30, i64 8, i1 false), !tbaa.struct !105
  %31 = load ptr, ptr %2, align 8, !tbaa !89
  %32 = getelementptr inbounds nuw %struct.AVFilterLink, ptr %31, i32 0, i32 13
  %33 = load ptr, ptr %3, align 8, !tbaa !89
  %34 = getelementptr inbounds nuw %struct.AVFilterLink, ptr %33, i32 0, i32 13
  call void @llvm.memcpy.p0.p0.i64(ptr align 8 %32, ptr align 8 %34, i64 8, i1 false), !tbaa.struct !105
  %35 = load ptr, ptr %5, align 8, !tbaa !127
  %36 = getelementptr inbounds nuw %struct.FilterLink, ptr %35, i32 0, i32 10
  %37 = load ptr, ptr %4, align 8, !tbaa !127
  %38 = getelementptr inbounds nuw %struct.FilterLink, ptr %37, i32 0, i32 10
  call void @llvm.memcpy.p0.p0.i64(ptr align 8 %36, ptr align 8 %38, i64 8, i1 false), !tbaa.struct !105
  %39 = load ptr, ptr %3, align 8, !tbaa !89
  %40 = getelementptr inbounds nuw %struct.AVFilterLink, ptr %39, i32 0, i32 9
  %41 = load i32, ptr %40, align 8, !tbaa !108
  %42 = load ptr, ptr %2, align 8, !tbaa !89
  %43 = getelementptr inbounds nuw %struct.AVFilterLink, ptr %42, i32 0, i32 9
  store i32 %41, ptr %43, align 8, !tbaa !108
  %44 = load ptr, ptr %3, align 8, !tbaa !89
  %45 = getelementptr inbounds nuw %struct.AVFilterLink, ptr %44, i32 0, i32 10
  %46 = load i32, ptr %45, align 4, !tbaa !109
  %47 = load ptr, ptr %2, align 8, !tbaa !89
  %48 = getelementptr inbounds nuw %struct.AVFilterLink, ptr %47, i32 0, i32 10
  store i32 %46, ptr %48, align 4, !tbaa !109
  call void @llvm.lifetime.end.p0(i64 8, ptr %5) #12
  call void @llvm.lifetime.end.p0(i64 8, ptr %4) #12
  call void @llvm.lifetime.end.p0(i64 8, ptr %3) #12
  ret i32 0
}

; Function Attrs: inlinehint nounwind uwtable
define internal ptr @ff_filter_link(ptr noundef %0) #8 {
  %2 = alloca ptr, align 8
  store ptr %0, ptr %2, align 8, !tbaa !89
  %3 = load ptr, ptr %2, align 8, !tbaa !89
  ret ptr %3
}

; Function Attrs: nounwind uwtable
define internal i32 @filter_frame_ref(ptr noundef %0, ptr noundef %1) #1 {
  %3 = alloca ptr, align 8
  %4 = alloca ptr, align 8
  %5 = alloca ptr, align 8
  %6 = alloca ptr, align 8
  %7 = alloca ptr, align 8
  %8 = alloca i32, align 4
  store ptr %0, ptr %3, align 8, !tbaa !89
  store ptr %1, ptr %4, align 8, !tbaa !126
  call void @llvm.lifetime.start.p0(i64 8, ptr %5) #12
  %9 = load ptr, ptr %3, align 8, !tbaa !89
  %10 = call ptr @ff_filter_link(ptr noundef %9)
  store ptr %10, ptr %5, align 8, !tbaa !127
  call void @llvm.lifetime.start.p0(i64 8, ptr %6) #12
  %11 = load ptr, ptr %3, align 8, !tbaa !89
  %12 = getelementptr inbounds nuw %struct.AVFilterLink, ptr %11, i32 0, i32 2
  %13 = load ptr, ptr %12, align 8, !tbaa !147
  %14 = getelementptr inbounds nuw %struct.AVFilterContext, ptr %13, i32 0, i32 9
  %15 = load ptr, ptr %14, align 8, !tbaa !9
  store ptr %15, ptr %6, align 8, !tbaa !22
  call void @llvm.lifetime.start.p0(i64 8, ptr %7) #12
  %16 = load ptr, ptr %3, align 8, !tbaa !89
  %17 = getelementptr inbounds nuw %struct.AVFilterLink, ptr %16, i32 0, i32 2
  %18 = load ptr, ptr %17, align 8, !tbaa !147
  %19 = getelementptr inbounds nuw %struct.AVFilterContext, ptr %18, i32 0, i32 7
  %20 = load ptr, ptr %19, align 8, !tbaa !119
  %21 = getelementptr inbounds ptr, ptr %20, i64 1
  %22 = load ptr, ptr %21, align 8, !tbaa !89
  store ptr %22, ptr %7, align 8, !tbaa !89
  call void @llvm.lifetime.start.p0(i64 4, ptr %8) #12
  %23 = load ptr, ptr %4, align 8, !tbaa !126
  %24 = getelementptr inbounds nuw %struct.AVFrame, ptr %23, i32 0, i32 3
  %25 = load i32, ptr %24, align 8, !tbaa !129
  %26 = load ptr, ptr %3, align 8, !tbaa !89
  %27 = getelementptr inbounds nuw %struct.AVFilterLink, ptr %26, i32 0, i32 6
  %28 = load i32, ptr %27, align 8, !tbaa !98
  %29 = icmp ne i32 %25, %28
  br i1 %29, label %82, label %30

30:                                               ; preds = %2
  %31 = load ptr, ptr %4, align 8, !tbaa !126
  %32 = getelementptr inbounds nuw %struct.AVFrame, ptr %31, i32 0, i32 4
  %33 = load i32, ptr %32, align 4, !tbaa !134
  %34 = load ptr, ptr %3, align 8, !tbaa !89
  %35 = getelementptr inbounds nuw %struct.AVFilterLink, ptr %34, i32 0, i32 7
  %36 = load i32, ptr %35, align 4, !tbaa !99
  %37 = icmp ne i32 %33, %36
  br i1 %37, label %82, label %38

38:                                               ; preds = %30
  %39 = load ptr, ptr %4, align 8, !tbaa !126
  %40 = getelementptr inbounds nuw %struct.AVFrame, ptr %39, i32 0, i32 6
  %41 = load i32, ptr %40, align 4, !tbaa !135
  %42 = load ptr, ptr %3, align 8, !tbaa !89
  %43 = getelementptr inbounds nuw %struct.AVFilterLink, ptr %42, i32 0, i32 5
  %44 = load i32, ptr %43, align 4, !tbaa !107
  %45 = icmp ne i32 %41, %44
  br i1 %45, label %82, label %46

46:                                               ; preds = %38
  %47 = load ptr, ptr %4, align 8, !tbaa !126
  %48 = getelementptr inbounds nuw %struct.AVFrame, ptr %47, i32 0, i32 8
  %49 = getelementptr inbounds nuw %struct.AVRational, ptr %48, i32 0, i32 1
  %50 = load i32, ptr %49, align 4, !tbaa !136
  %51 = load ptr, ptr %3, align 8, !tbaa !89
  %52 = getelementptr inbounds nuw %struct.AVFilterLink, ptr %51, i32 0, i32 8
  %53 = getelementptr inbounds nuw %struct.AVRational, ptr %52, i32 0, i32 1
  %54 = load i32, ptr %53, align 4, !tbaa !110
  %55 = icmp ne i32 %50, %54
  br i1 %55, label %82, label %56

56:                                               ; preds = %46
  %57 = load ptr, ptr %4, align 8, !tbaa !126
  %58 = getelementptr inbounds nuw %struct.AVFrame, ptr %57, i32 0, i32 8
  %59 = getelementptr inbounds nuw %struct.AVRational, ptr %58, i32 0, i32 0
  %60 = load i32, ptr %59, align 4, !tbaa !137
  %61 = load ptr, ptr %3, align 8, !tbaa !89
  %62 = getelementptr inbounds nuw %struct.AVFilterLink, ptr %61, i32 0, i32 8
  %63 = getelementptr inbounds nuw %struct.AVRational, ptr %62, i32 0, i32 0
  %64 = load i32, ptr %63, align 8, !tbaa !106
  %65 = icmp ne i32 %60, %64
  br i1 %65, label %82, label %66

66:                                               ; preds = %56
  %67 = load ptr, ptr %4, align 8, !tbaa !126
  %68 = getelementptr inbounds nuw %struct.AVFrame, ptr %67, i32 0, i32 25
  %69 = load i32, ptr %68, align 4, !tbaa !138
  %70 = load ptr, ptr %3, align 8, !tbaa !89
  %71 = getelementptr inbounds nuw %struct.AVFilterLink, ptr %70, i32 0, i32 9
  %72 = load i32, ptr %71, align 8, !tbaa !108
  %73 = icmp ne i32 %69, %72
  br i1 %73, label %82, label %74

74:                                               ; preds = %66
  %75 = load ptr, ptr %4, align 8, !tbaa !126
  %76 = getelementptr inbounds nuw %struct.AVFrame, ptr %75, i32 0, i32 22
  %77 = load i32, ptr %76, align 8, !tbaa !139
  %78 = load ptr, ptr %3, align 8, !tbaa !89
  %79 = getelementptr inbounds nuw %struct.AVFilterLink, ptr %78, i32 0, i32 10
  %80 = load i32, ptr %79, align 4, !tbaa !109
  %81 = icmp ne i32 %77, %80
  br label %82

82:                                               ; preds = %74, %66, %56, %46, %38, %30, %2
  %83 = phi i1 [ true, %66 ], [ true, %56 ], [ true, %46 ], [ true, %38 ], [ true, %30 ], [ true, %2 ], [ %81, %74 ]
  %84 = zext i1 %83 to i32
  store i32 %84, ptr %8, align 4, !tbaa !39
  %85 = load i32, ptr %8, align 4, !tbaa !39
  %86 = icmp ne i32 %85, 0
  br i1 %86, label %87, label %129

87:                                               ; preds = %82
  %88 = load ptr, ptr %4, align 8, !tbaa !126
  %89 = getelementptr inbounds nuw %struct.AVFrame, ptr %88, i32 0, i32 6
  %90 = load i32, ptr %89, align 4, !tbaa !135
  %91 = load ptr, ptr %3, align 8, !tbaa !89
  %92 = getelementptr inbounds nuw %struct.AVFilterLink, ptr %91, i32 0, i32 5
  store i32 %90, ptr %92, align 4, !tbaa !107
  %93 = load ptr, ptr %4, align 8, !tbaa !126
  %94 = getelementptr inbounds nuw %struct.AVFrame, ptr %93, i32 0, i32 3
  %95 = load i32, ptr %94, align 8, !tbaa !129
  %96 = load ptr, ptr %3, align 8, !tbaa !89
  %97 = getelementptr inbounds nuw %struct.AVFilterLink, ptr %96, i32 0, i32 6
  store i32 %95, ptr %97, align 8, !tbaa !98
  %98 = load ptr, ptr %4, align 8, !tbaa !126
  %99 = getelementptr inbounds nuw %struct.AVFrame, ptr %98, i32 0, i32 4
  %100 = load i32, ptr %99, align 4, !tbaa !134
  %101 = load ptr, ptr %3, align 8, !tbaa !89
  %102 = getelementptr inbounds nuw %struct.AVFilterLink, ptr %101, i32 0, i32 7
  store i32 %100, ptr %102, align 4, !tbaa !99
  %103 = load ptr, ptr %4, align 8, !tbaa !126
  %104 = getelementptr inbounds nuw %struct.AVFrame, ptr %103, i32 0, i32 8
  %105 = getelementptr inbounds nuw %struct.AVRational, ptr %104, i32 0, i32 0
  %106 = load i32, ptr %105, align 4, !tbaa !137
  %107 = load ptr, ptr %3, align 8, !tbaa !89
  %108 = getelementptr inbounds nuw %struct.AVFilterLink, ptr %107, i32 0, i32 8
  %109 = getelementptr inbounds nuw %struct.AVRational, ptr %108, i32 0, i32 0
  store i32 %106, ptr %109, align 8, !tbaa !106
  %110 = load ptr, ptr %4, align 8, !tbaa !126
  %111 = getelementptr inbounds nuw %struct.AVFrame, ptr %110, i32 0, i32 8
  %112 = getelementptr inbounds nuw %struct.AVRational, ptr %111, i32 0, i32 1
  %113 = load i32, ptr %112, align 4, !tbaa !136
  %114 = load ptr, ptr %3, align 8, !tbaa !89
  %115 = getelementptr inbounds nuw %struct.AVFilterLink, ptr %114, i32 0, i32 8
  %116 = getelementptr inbounds nuw %struct.AVRational, ptr %115, i32 0, i32 1
  store i32 %113, ptr %116, align 4, !tbaa !110
  %117 = load ptr, ptr %4, align 8, !tbaa !126
  %118 = getelementptr inbounds nuw %struct.AVFrame, ptr %117, i32 0, i32 25
  %119 = load i32, ptr %118, align 4, !tbaa !138
  %120 = load ptr, ptr %3, align 8, !tbaa !89
  %121 = getelementptr inbounds nuw %struct.AVFilterLink, ptr %120, i32 0, i32 9
  store i32 %119, ptr %121, align 8, !tbaa !108
  %122 = load ptr, ptr %4, align 8, !tbaa !126
  %123 = getelementptr inbounds nuw %struct.AVFrame, ptr %122, i32 0, i32 22
  %124 = load i32, ptr %123, align 8, !tbaa !139
  %125 = load ptr, ptr %3, align 8, !tbaa !89
  %126 = getelementptr inbounds nuw %struct.AVFilterLink, ptr %125, i32 0, i32 10
  store i32 %124, ptr %126, align 4, !tbaa !109
  %127 = load ptr, ptr %7, align 8, !tbaa !89
  %128 = call i32 @config_props_ref(ptr noundef %127)
  br label %129

129:                                              ; preds = %87, %82
  %130 = load ptr, ptr %6, align 8, !tbaa !22
  %131 = getelementptr inbounds nuw %struct.ScaleContext, ptr %130, i32 0, i32 35
  %132 = load i32, ptr %131, align 4, !tbaa !140
  %133 = icmp eq i32 %132, 1
  br i1 %133, label %134, label %162

134:                                              ; preds = %129
  %135 = load ptr, ptr %5, align 8, !tbaa !127
  %136 = getelementptr inbounds nuw %struct.FilterLink, ptr %135, i32 0, i32 7
  %137 = load i64, ptr %136, align 8, !tbaa !141
  %138 = sitofp i64 %137 to double
  %139 = load ptr, ptr %6, align 8, !tbaa !22
  %140 = getelementptr inbounds nuw %struct.ScaleContext, ptr %139, i32 0, i32 16
  %141 = getelementptr inbounds [41 x double], ptr %140, i64 0, i64 15
  store double %138, ptr %141, align 8, !tbaa !51
  %142 = load ptr, ptr %4, align 8, !tbaa !126
  %143 = getelementptr inbounds nuw %struct.AVFrame, ptr %142, i32 0, i32 9
  %144 = load i64, ptr %143, align 8, !tbaa !143
  %145 = icmp eq i64 %144, -9223372036854775808
  br i1 %145, label %146, label %147

146:                                              ; preds = %134
  br label %157

147:                                              ; preds = %134
  %148 = load ptr, ptr %4, align 8, !tbaa !126
  %149 = getelementptr inbounds nuw %struct.AVFrame, ptr %148, i32 0, i32 9
  %150 = load i64, ptr %149, align 8, !tbaa !143
  %151 = sitofp i64 %150 to double
  %152 = load ptr, ptr %3, align 8, !tbaa !89
  %153 = getelementptr inbounds nuw %struct.AVFilterLink, ptr %152, i32 0, i32 13
  %154 = load i64, ptr %153, align 8
  %155 = call nsz double @av_q2d(i64 %154)
  %156 = fmul nsz double %151, %155
  br label %157

157:                                              ; preds = %147, %146
  %158 = phi nsz double [ 0x7FF8000000000000, %146 ], [ %156, %147 ]
  %159 = load ptr, ptr %6, align 8, !tbaa !22
  %160 = getelementptr inbounds nuw %struct.ScaleContext, ptr %159, i32 0, i32 16
  %161 = getelementptr inbounds [41 x double], ptr %160, i64 0, i64 16
  store double %158, ptr %161, align 8, !tbaa !51
  br label %162

162:                                              ; preds = %157, %129
  %163 = load ptr, ptr %7, align 8, !tbaa !89
  %164 = load ptr, ptr %4, align 8, !tbaa !126
  %165 = call i32 @ff_filter_frame(ptr noundef %163, ptr noundef %164)
  call void @llvm.lifetime.end.p0(i64 4, ptr %8) #12
  call void @llvm.lifetime.end.p0(i64 8, ptr %7) #12
  call void @llvm.lifetime.end.p0(i64 8, ptr %6) #12
  call void @llvm.lifetime.end.p0(i64 8, ptr %5) #12
  ret i32 %165
}