; Function Attrs: nounwind uwtable
define internal i32 @filter_frame_ref(ptr noundef captures(none) %0, ptr noundef %1) #1 {
  %3 = getelementptr inbounds nuw i8, ptr %0, i64 16
  %4 = load ptr, ptr %3, align 8, !tbaa !129
  %5 = getelementptr inbounds nuw i8, ptr %4, i64 72
  %6 = load ptr, ptr %5, align 8, !tbaa !4
  %7 = getelementptr inbounds nuw i8, ptr %4, i64 56
  %8 = load ptr, ptr %7, align 8, !tbaa !89
  %9 = getelementptr inbounds nuw i8, ptr %8, i64 8
  %10 = load ptr, ptr %9, align 8, !tbaa !87
  %11 = getelementptr inbounds nuw i8, ptr %1, i64 104
  %12 = load i32, ptr %11, align 8, !tbaa !113
  %13 = getelementptr inbounds nuw i8, ptr %0, i64 40
  %14 = load i32, ptr %13, align 8, !tbaa !91
  %.not = icmp eq i32 %12, %14
  %15 = getelementptr inbounds nuw i8, ptr %1, i64 108
  %16 = load i32, ptr %15, align 4, !tbaa !118
  br i1 %.not, label %17, label %.critedge

17:                                               ; preds = %2
  %18 = getelementptr inbounds nuw i8, ptr %0, i64 44
  %19 = load i32, ptr %18, align 4, !tbaa !92
  %.not41 = icmp eq i32 %16, %19
  br i1 %.not41, label %20, label %.critedge

20:                                               ; preds = %17
  %21 = getelementptr inbounds nuw i8, ptr %1, i64 116
  %22 = load i32, ptr %21, align 4, !tbaa !119
  %23 = getelementptr inbounds nuw i8, ptr %0, i64 36
  %24 = load i32, ptr %23, align 4, !tbaa !90
  %.not42 = icmp eq i32 %22, %24
  br i1 %.not42, label %25, label %.critedge

25:                                               ; preds = %20
  %26 = getelementptr inbounds nuw i8, ptr %1, i64 128
  %27 = load i32, ptr %26, align 4, !tbaa !120
  %28 = getelementptr inbounds nuw i8, ptr %0, i64 52
  %29 = load i32, ptr %28, align 4, !tbaa !94
  %.not43 = icmp eq i32 %27, %29
  br i1 %.not43, label %30, label %.critedge

30:                                               ; preds = %25
  %31 = getelementptr inbounds nuw i8, ptr %0, i64 48
  %32 = getelementptr inbounds nuw i8, ptr %1, i64 124
  %33 = load i32, ptr %32, align 4, !tbaa !121
  %34 = load i32, ptr %31, align 8, !tbaa !93
  %.not44 = icmp eq i32 %33, %34
  br i1 %.not44, label %35, label %.critedge

35:                                               ; preds = %30
  %36 = getelementptr inbounds nuw i8, ptr %1, i64 292
  %37 = load i32, ptr %36, align 4, !tbaa !122
  %38 = getelementptr inbounds nuw i8, ptr %0, i64 56
  %39 = load i32, ptr %38, align 8, !tbaa !101
  %.not45 = icmp eq i32 %37, %39
  br i1 %.not45, label %40, label %.critedge

40:                                               ; preds = %35
  %41 = getelementptr inbounds nuw i8, ptr %1, i64 280
  %42 = load i32, ptr %41, align 8, !tbaa !123
  %43 = getelementptr inbounds nuw i8, ptr %0, i64 60
  %44 = load i32, ptr %43, align 4, !tbaa !102
  %.not46 = icmp eq i32 %42, %44
  br i1 %.not46, label %87, label %.critedge

.critedge:                                        ; preds = %2, %35, %30, %25, %20, %17, %40
  %45 = getelementptr inbounds nuw i8, ptr %1, i64 116
  %46 = load i32, ptr %45, align 4, !tbaa !119
  %47 = getelementptr inbounds nuw i8, ptr %0, i64 36
  store i32 %46, ptr %47, align 4, !tbaa !90
  store i32 %12, ptr %13, align 8, !tbaa !91
  %48 = getelementptr inbounds nuw i8, ptr %0, i64 44
  store i32 %16, ptr %48, align 4, !tbaa !92
  %49 = getelementptr inbounds nuw i8, ptr %1, i64 124
  %50 = load i32, ptr %49, align 4, !tbaa !121
  %51 = getelementptr inbounds nuw i8, ptr %0, i64 48
  store i32 %50, ptr %51, align 8, !tbaa !93
  %52 = getelementptr inbounds nuw i8, ptr %1, i64 128
  %53 = load i32, ptr %52, align 4, !tbaa !120
  %54 = getelementptr inbounds nuw i8, ptr %0, i64 52
  store i32 %53, ptr %54, align 4, !tbaa !94
  %55 = getelementptr inbounds nuw i8, ptr %1, i64 292
  %56 = load i32, ptr %55, align 4, !tbaa !122
  %57 = getelementptr inbounds nuw i8, ptr %0, i64 56
  store i32 %56, ptr %57, align 8, !tbaa !101
  %58 = getelementptr inbounds nuw i8, ptr %1, i64 280
  %59 = load i32, ptr %58, align 8, !tbaa !123
  %60 = getelementptr inbounds nuw i8, ptr %0, i64 60
  store i32 %59, ptr %60, align 4, !tbaa !102
  %61 = load ptr, ptr %10, align 8, !tbaa !80
  %62 = getelementptr inbounds nuw i8, ptr %61, i64 32
  %63 = load ptr, ptr %62, align 8, !tbaa !86
  %64 = getelementptr inbounds nuw i8, ptr %63, i64 8
  %65 = load ptr, ptr %64, align 8, !tbaa !87
  %66 = getelementptr inbounds nuw i8, ptr %65, i64 40
  %67 = load i32, ptr %66, align 8, !tbaa !91
  %68 = getelementptr inbounds nuw i8, ptr %10, i64 40
  store i32 %67, ptr %68, align 8, !tbaa !91
  %69 = getelementptr inbounds nuw i8, ptr %65, i64 44
  %70 = load i32, ptr %69, align 4, !tbaa !92
  %71 = getelementptr inbounds nuw i8, ptr %10, i64 44
  store i32 %70, ptr %71, align 4, !tbaa !92
  %72 = getelementptr inbounds nuw i8, ptr %10, i64 48
  %73 = getelementptr inbounds nuw i8, ptr %65, i64 48
  %74 = load i64, ptr %73, align 8
  store i64 %74, ptr %72, align 8
  %75 = getelementptr inbounds nuw i8, ptr %10, i64 96
  %76 = getelementptr inbounds nuw i8, ptr %65, i64 96
  %77 = load i64, ptr %76, align 8
  store i64 %77, ptr %75, align 8
  %78 = getelementptr inbounds nuw i8, ptr %10, i64 264
  %79 = getelementptr inbounds nuw i8, ptr %65, i64 264
  %80 = load i64, ptr %79, align 8
  store i64 %80, ptr %78, align 8
  %81 = getelementptr inbounds nuw i8, ptr %65, i64 56
  %82 = load i32, ptr %81, align 8, !tbaa !101
  %83 = getelementptr inbounds nuw i8, ptr %10, i64 56
  store i32 %82, ptr %83, align 8, !tbaa !101
  %84 = getelementptr inbounds nuw i8, ptr %65, i64 60
  %85 = load i32, ptr %84, align 4, !tbaa !102
  %86 = getelementptr inbounds nuw i8, ptr %10, i64 60
  store i32 %85, ptr %86, align 4, !tbaa !102
  br label %87

87:                                               ; preds = %.critedge, %40
  %88 = getelementptr inbounds nuw i8, ptr %6, i64 604
  %89 = load i32, ptr %88, align 4, !tbaa !124
  %90 = icmp eq i32 %89, 1
  br i1 %90, label %91, label %110

91:                                               ; preds = %87
  %92 = getelementptr inbounds nuw i8, ptr %0, i64 240
  %93 = load i64, ptr %92, align 8, !tbaa !125
  %94 = sitofp i64 %93 to double
  %95 = getelementptr inbounds nuw i8, ptr %6, i64 320
  store double %94, ptr %95, align 8, !tbaa !54
  %96 = getelementptr inbounds nuw i8, ptr %1, i64 136
  %97 = load i64, ptr %96, align 8, !tbaa !127
  %98 = icmp eq i64 %97, -9223372036854775808
  br i1 %98, label %107, label %99

99:                                               ; preds = %91
  %100 = sitofp i64 %97 to double
  %101 = getelementptr inbounds nuw i8, ptr %0, i64 96
  %102 = load i64, ptr %101, align 8
  %.sroa.0.0.extract.trunc.i = trunc i64 %102 to i32
  %.sroa.2.0.extract.shift.i = lshr i64 %102, 32
  %.sroa.2.0.extract.trunc.i = trunc nuw i64 %.sroa.2.0.extract.shift.i to i32
  %103 = sitofp i32 %.sroa.0.0.extract.trunc.i to double
  %104 = sitofp i32 %.sroa.2.0.extract.trunc.i to double
  %105 = fdiv nsz double %103, %104
  %106 = fmul nsz double %105, %100
  br label %107

107:                                              ; preds = %91, %99
  %108 = phi nsz double [ %106, %99 ], [ 0x7FF8000000000000, %91 ]
  %109 = getelementptr inbounds nuw i8, ptr %6, i64 328
  store double %108, ptr %109, align 8, !tbaa !54
  br label %110

110:                                              ; preds = %107, %87
  %111 = tail call i32 @ff_filter_frame(ptr noundef %10, ptr noundef nonnull %1) #14
  ret i32 %111
}